; ModuleID = 'source-C-CXX/48/719.cpp'
source_filename = "source-C-CXX/48/719.cpp"
target datalayout = "e-m:e-p270:32:32-p271:32:32-p272:64:64-i64:64-f80:128-n8:16:32:64-S128"
target triple = "x86_64-pc-linux-gnu"

%"class.std::ios_base::Init" = type { i8 }
%"class.std::basic_istream" = type { i32 (...)**, i64, %"class.std::basic_ios" }
%"class.std::basic_ios" = type { %"class.std::ios_base", %"class.std::basic_ostream"*, i8, i8, %"class.std::basic_streambuf"*, %"class.std::ctype"*, %"class.std::num_put"*, %"class.std::num_get"* }
%"class.std::ios_base" = type { i32 (...)**, i64, i64, i32, i32, i32, %"struct.std::ios_base::_Callback_list"*, %"struct.std::ios_base::_Words", [8 x %"struct.std::ios_base::_Words"], i32, %"struct.std::ios_base::_Words"*, %"class.std::locale" }
%"struct.std::ios_base::_Callback_list" = type { %"struct.std::ios_base::_Callback_list"*, void (i32, %"class.std::ios_base"*, i32)*, i32, i32 }
%"struct.std::ios_base::_Words" = type { i8*, i64 }
%"class.std::locale" = type { %"class.std::locale::_Impl"* }
%"class.std::locale::_Impl" = type { i32, %"class.std::locale::facet"**, i64, %"class.std::locale::facet"**, i8** }
%"class.std::locale::facet" = type <{ i32 (...)**, i32, [4 x i8] }>
%"class.std::basic_ostream" = type { i32 (...)**, %"class.std::basic_ios" }
%"class.std::basic_streambuf" = type { i32 (...)**, i8*, i8*, i8*, i8*, i8*, i8*, %"class.std::locale" }
%"class.std::ctype" = type <{ %"class.std::locale::facet.base", [4 x i8], %struct.__locale_struct*, i8, [7 x i8], i32*, i32*, i16*, i8, [256 x i8], [256 x i8], i8, [6 x i8] }>
%"class.std::locale::facet.base" = type <{ i32 (...)**, i32 }>
%struct.__locale_struct = type { [13 x %struct.__locale_data*], i16*, i32*, i32*, [13 x i8*] }
%struct.__locale_data = type opaque
%"class.std::num_put" = type { %"class.std::locale::facet.base", [4 x i8] }
%"class.std::num_get" = type { %"class.std::locale::facet.base", [4 x i8] }

@_ZStL8__ioinit = internal global %"class.std::ios_base::Init" zeroinitializer, align 1
@__dso_handle = external hidden global i8
@_ZSt3cin = external global %"class.std::basic_istream", align 8
@_ZSt4cout = external global %"class.std::basic_ostream", align 8
@llvm.global_ctors = appending global [1 x { i32, void ()*, i8* }] [{ i32, void ()*, i8* } { i32 65535, void ()* @_GLOBAL__sub_I_719.cpp, i8* null }]

declare void @_ZNSt8ios_base4InitC1Ev(%"class.std::ios_base::Init"* nonnull align 1 dereferenceable(1)) unnamed_addr #0

; Function Attrs: nounwind
declare void @_ZNSt8ios_base4InitD1Ev(%"class.std::ios_base::Init"* nonnull align 1 dereferenceable(1)) unnamed_addr #1

; Function Attrs: nofree nounwind
declare i32 @__cxa_atexit(void (i8*)*, i8*, i8*) local_unnamed_addr #2

; Function Attrs: mustprogress norecurse sspstrong uwtable
define dso_local i32 @main() local_unnamed_addr #3 {
  %1 = alloca i8, align 1
  %2 = alloca i8, align 1
  %3 = alloca [502 x i8], align 16
  %4 = alloca i8, align 1
  %5 = getelementptr inbounds [502 x i8], [502 x i8]* %3, i64 0, i64 0
  call void @llvm.lifetime.start.p0i8(i64 502, i8* nonnull %5) #7
  call void @llvm.lifetime.start.p0i8(i64 1, i8* nonnull %4) #7
  %6 = call nonnull align 8 dereferenceable(16) %"class.std::basic_istream"* @_ZNSi3getERc(%"class.std::basic_istream"* nonnull align 8 dereferenceable(16) @_ZSt3cin, i8* nonnull align 1 dereferenceable(1) %4)
  %7 = bitcast %"class.std::basic_istream"* %6 to i8**
  %8 = load i8*, i8** %7, align 8, !tbaa !5
  %9 = getelementptr i8, i8* %8, i64 -24
  %10 = bitcast i8* %9 to i64*
  %11 = load i64, i64* %10, align 8
  %12 = bitcast %"class.std::basic_istream"* %6 to i8*
  %13 = add nsw i64 %11, 32
  %14 = getelementptr inbounds i8, i8* %12, i64 %13
  %15 = bitcast i8* %14 to i32*
  %16 = load i32, i32* %15, align 8, !tbaa !8
  %17 = and i32 %16, 5
  %18 = icmp eq i32 %17, 0
  %19 = load i8, i8* %4, align 1
  %20 = icmp ne i8 %19, 10
  %21 = select i1 %18, i1 %20, i1 false
  br i1 %21, label %29, label %26

22:                                               ; preds = %29
  %23 = trunc i64 %30 to i32
  %24 = add i32 %23, 1
  %25 = icmp slt i32 %23, 2
  br i1 %25, label %120, label %26

26:                                               ; preds = %0, %22
  %27 = phi i32 [ %24, %22 ], [ undef, %0 ]
  %28 = zext i32 %27 to i64
  br label %50

29:                                               ; preds = %0, %29
  %30 = phi i64 [ %33, %29 ], [ 1, %0 ]
  %31 = phi i8 [ %47, %29 ], [ %19, %0 ]
  %32 = getelementptr inbounds [502 x i8], [502 x i8]* %3, i64 0, i64 %30
  store i8 %31, i8* %32, align 1, !tbaa !18
  %33 = add nuw i64 %30, 1
  %34 = call nonnull align 8 dereferenceable(16) %"class.std::basic_istream"* @_ZNSi3getERc(%"class.std::basic_istream"* nonnull align 8 dereferenceable(16) @_ZSt3cin, i8* nonnull align 1 dereferenceable(1) %4)
  %35 = bitcast %"class.std::basic_istream"* %34 to i8**
  %36 = load i8*, i8** %35, align 8, !tbaa !5
  %37 = getelementptr i8, i8* %36, i64 -24
  %38 = bitcast i8* %37 to i64*
  %39 = load i64, i64* %38, align 8
  %40 = bitcast %"class.std::basic_istream"* %34 to i8*
  %41 = add nsw i64 %39, 32
  %42 = getelementptr inbounds i8, i8* %40, i64 %41
  %43 = bitcast i8* %42 to i32*
  %44 = load i32, i32* %43, align 8, !tbaa !8
  %45 = and i32 %44, 5
  %46 = icmp eq i32 %45, 0
  %47 = load i8, i8* %4, align 1
  %48 = icmp ne i8 %47, 10
  %49 = select i1 %46, i1 %48, i1 false
  br i1 %49, label %29, label %22, !llvm.loop !19

50:                                               ; preds = %26, %117
  %51 = phi i64 [ 2, %26 ], [ %118, %117 ]
  %52 = trunc i64 %51 to i32
  %53 = sub i32 %27, %52
  %54 = icmp slt i32 %53, 1
  br i1 %54, label %117, label %55

55:                                               ; preds = %50, %113
  %56 = phi i64 [ %115, %113 ], [ %51, %50 ]
  %57 = phi i64 [ %114, %113 ], [ 1, %50 ]
  %58 = add nuw nsw i64 %57, %51
  br label %61

59:                                               ; preds = %61
  %60 = icmp eq i64 %71, %51
  br i1 %60, label %72, label %61, !llvm.loop !21

61:                                               ; preds = %55, %59
  %62 = phi i64 [ 0, %55 ], [ %71, %59 ]
  %63 = add nuw nsw i64 %62, %57
  %64 = getelementptr inbounds [502 x i8], [502 x i8]* %3, i64 0, i64 %63
  %65 = load i8, i8* %64, align 1, !tbaa !18
  %66 = xor i64 %62, -1
  %67 = add nsw i64 %58, %66
  %68 = getelementptr inbounds [502 x i8], [502 x i8]* %3, i64 0, i64 %67
  %69 = load i8, i8* %68, align 1, !tbaa !18
  %70 = icmp eq i8 %65, %69
  %71 = add nuw nsw i64 %62, 1
  br i1 %70, label %59, label %113

72:                                               ; preds = %59, %72
  %73 = phi i64 [ %77, %72 ], [ %57, %59 ]
  %74 = getelementptr inbounds [502 x i8], [502 x i8]* %3, i64 0, i64 %73
  %75 = load i8, i8* %74, align 1, !tbaa !18
  call void @llvm.lifetime.start.p0i8(i64 1, i8* nonnull %2)
  store i8 %75, i8* %2, align 1, !tbaa !18
  %76 = call nonnull align 8 dereferenceable(8) %"class.std::basic_ostream"* @_ZSt16__ostream_insertIcSt11char_traitsIcEERSt13basic_ostreamIT_T0_ES6_PKS3_l(%"class.std::basic_ostream"* nonnull align 8 dereferenceable(8) @_ZSt4cout, i8* nonnull %2, i64 1)
  call void @llvm.lifetime.end.p0i8(i64 1, i8* nonnull %2)
  %77 = add nuw nsw i64 %73, 1
  %78 = icmp eq i64 %77, %56
  br i1 %78, label %79, label %72, !llvm.loop !22

79:                                               ; preds = %72
  %80 = add nsw i64 %58, -1
  %81 = getelementptr inbounds [502 x i8], [502 x i8]* %3, i64 0, i64 %80
  %82 = load i8, i8* %81, align 1, !tbaa !18
  call void @llvm.lifetime.start.p0i8(i64 1, i8* nonnull %1)
  store i8 %82, i8* %1, align 1, !tbaa !18
  %83 = call nonnull align 8 dereferenceable(8) %"class.std::basic_ostream"* @_ZSt16__ostream_insertIcSt11char_traitsIcEERSt13basic_ostreamIT_T0_ES6_PKS3_l(%"class.std::basic_ostream"* nonnull align 8 dereferenceable(8) @_ZSt4cout, i8* nonnull %1, i64 1)
  call void @llvm.lifetime.end.p0i8(i64 1, i8* nonnull %1)
  %84 = bitcast %"class.std::basic_ostream"* %83 to i8**
  %85 = load i8*, i8** %84, align 8, !tbaa !5
  %86 = getelementptr i8, i8* %85, i64 -24
  %87 = bitcast i8* %86 to i64*
  %88 = load i64, i64* %87, align 8
  %89 = bitcast %"class.std::basic_ostream"* %83 to i8*
  %90 = add nsw i64 %88, 240
  %91 = getelementptr inbounds i8, i8* %89, i64 %90
  %92 = bitcast i8* %91 to %"class.std::ctype"**
  %93 = load %"class.std::ctype"*, %"class.std::ctype"** %92, align 8, !tbaa !23
  %94 = icmp eq %"class.std::ctype"* %93, null
  br i1 %94, label %95, label %96

95:                                               ; preds = %79
  call void @_ZSt16__throw_bad_castv() #8
  unreachable

96:                                               ; preds = %79
  %97 = getelementptr inbounds %"class.std::ctype", %"class.std::ctype"* %93, i64 0, i32 8
  %98 = load i8, i8* %97, align 8, !tbaa !26
  %99 = icmp eq i8 %98, 0
  br i1 %99, label %103, label %100

100:                                              ; preds = %96
  %101 = getelementptr inbounds %"class.std::ctype", %"class.std::ctype"* %93, i64 0, i32 9, i64 10
  %102 = load i8, i8* %101, align 1, !tbaa !18
  br label %109

103:                                              ; preds = %96
  call void @_ZNKSt5ctypeIcE13_M_widen_initEv(%"class.std::ctype"* nonnull align 8 dereferenceable(570) %93)
  %104 = bitcast %"class.std::ctype"* %93 to i8 (%"class.std::ctype"*, i8)***
  %105 = load i8 (%"class.std::ctype"*, i8)**, i8 (%"class.std::ctype"*, i8)*** %104, align 8, !tbaa !5
  %106 = getelementptr inbounds i8 (%"class.std::ctype"*, i8)*, i8 (%"class.std::ctype"*, i8)** %105, i64 6
  %107 = load i8 (%"class.std::ctype"*, i8)*, i8 (%"class.std::ctype"*, i8)** %106, align 8
  %108 = call signext i8 %107(%"class.std::ctype"* nonnull align 8 dereferenceable(570) %93, i8 signext 10)
  br label %109

109:                                              ; preds = %100, %103
  %110 = phi i8 [ %102, %100 ], [ %108, %103 ]
  %111 = call nonnull align 8 dereferenceable(8) %"class.std::basic_ostream"* @_ZNSo3putEc(%"class.std::basic_ostream"* nonnull align 8 dereferenceable(8) %83, i8 signext %110)
  %112 = call nonnull align 8 dereferenceable(8) %"class.std::basic_ostream"* @_ZNSo5flushEv(%"class.std::basic_ostream"* nonnull align 8 dereferenceable(8) %111)
  br label %113

113:                                              ; preds = %61, %109
  %114 = add nuw nsw i64 %57, 1
  %115 = add nuw nsw i64 %56, 1
  %116 = icmp eq i64 %115, %28
  br i1 %116, label %117, label %55, !llvm.loop !28

117:                                              ; preds = %113, %50
  %118 = add nuw nsw i64 %51, 1
  %119 = icmp eq i64 %118, %28
  br i1 %119, label %120, label %50, !llvm.loop !29

120:                                              ; preds = %117, %22
  call void @llvm.lifetime.end.p0i8(i64 1, i8* nonnull %4) #7
  call void @llvm.lifetime.end.p0i8(i64 502, i8* nonnull %5) #7
  ret i32 0
}

; Function Attrs: argmemonly mustprogress nofree nosync nounwind willreturn
declare void @llvm.lifetime.start.p0i8(i64 immarg, i8* nocapture) #4

declare nonnull align 8 dereferenceable(16) %"class.std::basic_istream"* @_ZNSi3getERc(%"class.std::basic_istream"* nonnull align 8 dereferenceable(16), i8* nonnull align 1 dereferenceable(1)) local_unnamed_addr #0

; Function Attrs: argmemonly mustprogress nofree nosync nounwind willreturn
declare void @llvm.lifetime.end.p0i8(i64 immarg, i8* nocapture) #4

declare nonnull align 8 dereferenceable(8) %"class.std::basic_ostream"* @_ZSt16__ostream_insertIcSt11char_traitsIcEERSt13basic_ostreamIT_T0_ES6_PKS3_l(%"class.std::basic_ostream"* nonnull align 8 dereferenceable(8), i8*, i64) local_unnamed_addr #0

declare nonnull align 8 dereferenceable(8) %"class.std::basic_ostream"* @_ZNSo3putEc(%"class.std::basic_ostream"* nonnull align 8 dereferenceable(8), i8 signext) local_unnamed_addr #0

declare nonnull align 8 dereferenceable(8) %"class.std::basic_ostream"* @_ZNSo5flushEv(%"class.std::basic_ostream"* nonnull align 8 dereferenceable(8)) local_unnamed_addr #0

; Function Attrs: noreturn
declare void @_ZSt16__throw_bad_castv() local_unnamed_addr #5

declare void @_ZNKSt5ctypeIcE13_M_widen_initEv(%"class.std::ctype"* nonnull align 8 dereferenceable(570)) local_unnamed_addr #0

; Function Attrs: sspstrong uwtable
define internal void @_GLOBAL__sub_I_719.cpp() #6 section ".text.startup" {
  tail call void @_ZNSt8ios_base4InitC1Ev(%"class.std::ios_base::Init"* nonnull align 1 dereferenceable(1) @_ZStL8__ioinit)
  %1 = tail call i32 @__cxa_atexit(void (i8*)* bitcast (void (%"class.std::ios_base::Init"*)* @_ZNSt8ios_base4InitD1Ev to void (i8*)*), i8* getelementptr inbounds (%"class.std::ios_base::Init", %"class.std::ios_base::Init"* @_ZStL8__ioinit, i64 0, i32 0), i8* nonnull @__dso_handle) #7
  ret void
}


!llvm.module.flags = !{!0, !1, !2, !3}
!llvm.ident = !{!4}

!0 = !{i32 1, !"wchar_size", i32 4}
!1 = !{i32 7, !"PIC Level", i32 2}
!2 = !{i32 7, !"PIE Level", i32 2}
!3 = !{i32 7, !"uwtable", i32 1}
!4 = !{!"clang version 13.0.0"}
!5 = !{!6, !6, i64 0}
!6 = !{!"vtable pointer", !7, i64 0}
!7 = !{!"Simple C++ TBAA"}
!8 = !{!9, !13, i64 32}
!9 = !{!"_ZTSSt8ios_base", !10, i64 8, !10, i64 16, !12, i64 24, !13, i64 28, !13, i64 32, !14, i64 40, !15, i64 48, !11, i64 64, !16, i64 192, !14, i64 200, !17, i64 208}
!10 = !{!"long", !11, i64 0}
!11 = !{!"omnipotent char", !7, i64 0}
!12 = !{!"_ZTSSt13_Ios_Fmtflags", !11, i64 0}
!13 = !{!"_ZTSSt12_Ios_Iostate", !11, i64 0}
!14 = !{!"any pointer", !11, i64 0}
!15 = !{!"_ZTSNSt8ios_base6_WordsE", !14, i64 0, !10, i64 8}
!16 = !{!"int", !11, i64 0}
!17 = !{!"_ZTSSt6locale", !14, i64 0}
!18 = !{!11, !11, i64 0}
!19 = distinct !{!19, !20}
!20 = !{!"llvm.loop.mustprogress"}
!21 = distinct !{!21, !20}
!22 = distinct !{!22, !20}
!23 = !{!24, !14, i64 240}
!24 = !{!"_ZTSSt9basic_iosIcSt11char_traitsIcEE", !14, i64 216, !11, i64 224, !25, i64 225, !14, i64 232, !14, i64 240, !14, i64 248, !14, i64 256}
!25 = !{!"bool", !11, i64 0}
!26 = !{!27, !11, i64 56}
!27 = !{!"_ZTSSt5ctypeIcE", !14, i64 16, !25, i64 24, !14, i64 32, !14, i64 40, !14, i64 48, !11, i64 56, !11, i64 57, !11, i64 313, !11, i64 569}
!28 = distinct !{!28, !20}
!29 = distinct !{!29, !20}
